target datalayout = "e-m:e-p270:32:32-p271:32:32-p272:64:64-i64:64-i128:128-f80:128-n8:16:32:64-S128"
target triple = "x86_64-pc-linux-gnu"

%"class.std::__cxx11::basic_string" = type { %"struct.std::__cxx11::basic_string<char>::_Alloc_hider", i64, %union.anon }
%"struct.std::__cxx11::basic_string<char>::_Alloc_hider" = type { ptr }
%union.anon = type { i64, [8 x i8] }
%"class.std::locale" = type { ptr }
%"class.boost::locale::impl_icu::icu_calendar_facet" = type { %"class.boost::locale::calendar_facet.base", [4 x i8], %"class.boost::locale::impl_icu::cdata" }
%"class.boost::locale::calendar_facet.base" = type { %"class.std::locale::facet.base" }
%"class.std::locale::facet.base" = type <{ ptr, i32 }>
%"class.boost::locale::impl_icu::cdata" = type { %"class.boost::locale::util::locale_data.base", [7 x i8], %"class.icu_70::Locale" }
%"class.boost::locale::util::locale_data.base" = type <{ %"class.std::__cxx11::basic_string", %"class.std::__cxx11::basic_string", %"class.std::__cxx11::basic_string", %"class.std::__cxx11::basic_string", i8 }>
%"class.icu_70::Locale" = type <{ %"class.icu_70::UObject", [12 x i8], [6 x i8], [4 x i8], [2 x i8], i32, [4 x i8], ptr, [157 x i8], [3 x i8], ptr, i8, [7 x i8] }>
%"class.icu_70::UObject" = type { ptr }
%"class.std::locale::facet" = type <{ ptr, i32, [4 x i8] }>

@_ZTVN5boost6locale14calendar_facetE = linkonce_odr unnamed_addr constant { [5 x ptr] } { [5 x ptr] [ptr null, ptr @_ZTIN5boost6locale14calendar_facetE, ptr @_ZNSt6locale5facetD2Ev, ptr @_ZN5boost6locale14calendar_facetD0Ev, ptr @__cxa_pure_virtual] }, comdat, align 8
@_ZTVNSt6locale5facetE = available_externally unnamed_addr constant { [4 x ptr] } { [4 x ptr] [ptr null, ptr @_ZTINSt6locale5facetE, ptr @_ZNSt6locale5facetD1Ev, ptr @_ZNSt6locale5facetD0Ev] }, align 8

; Function Attrs: mustprogress nounwind uwtable
define linkonce_odr hidden void @_ZNSt6locale5facetC2Em(ptr noundef nonnull align 8 dereferenceable(12) %0, i64 noundef %1) unnamed_addr #2 comdat align 2 {
  %3 = alloca ptr, align 8
  %4 = alloca i64, align 8
  store ptr %0, ptr %3, align 8, !tbaa !3
  store i64 %1, ptr %4, align 8, !tbaa !16
  %5 = load ptr, ptr %3, align 8
  store ptr getelementptr inbounds inrange(-16, 16) ({ [4 x ptr] }, ptr @_ZTVNSt6locale5facetE, i32 0, i32 0, i32 2), ptr %5, align 8, !tbaa !14
  %6 = getelementptr inbounds nuw %"class.std::locale::facet", ptr %5, i32 0, i32 1
  %7 = load i64, ptr %4, align 8, !tbaa !16
  %8 = icmp ne i64 %7, 0
  %9 = select i1 %8, i32 1, i32 0
  store i32 %9, ptr %6, align 8, !tbaa !23
  ret void
}

; Function Attrs: inlinehint mustprogress uwtable
define linkonce_odr hidden void @_ZN5boost6locale8impl_icu5cdataC2ERKS2_(ptr noundef nonnull align 8 dereferenceable(360) %0, ptr noundef nonnull align 8 dereferenceable(360) %1) unnamed_addr #0 comdat align 2 personality ptr @__gxx_personality_v0 {
  %3 = alloca ptr, align 8
  %4 = alloca ptr, align 8
  %5 = alloca ptr, align 8
  %6 = alloca i32, align 4
  store ptr %0, ptr %3, align 8, !tbaa !3
  store ptr %1, ptr %4, align 8, !tbaa !3
  %7 = load ptr, ptr %3, align 8
  %8 = load ptr, ptr %4, align 8, !tbaa !3
  call void @_ZN5boost6locale4util11locale_dataC2ERKS2_(ptr noundef nonnull align 8 dereferenceable(129) %7, ptr noundef nonnull align 8 dereferenceable(129) %8)
  %9 = getelementptr inbounds nuw %"class.boost::locale::impl_icu::cdata", ptr %7, i32 0, i32 2
  %10 = load ptr, ptr %4, align 8, !tbaa !3
  %11 = getelementptr inbounds nuw %"class.boost::locale::impl_icu::cdata", ptr %10, i32 0, i32 2
  invoke void @_ZN6icu_706LocaleC1ERKS0_(ptr noundef nonnull align 8 dereferenceable(217) %9, ptr noundef nonnull align 8 dereferenceable(217) %11)
          to label %12 unwind label %13

12:                                               ; preds = %2
  ret void

13:                                               ; preds = %2
  %14 = landingpad { ptr, i32 }
          cleanup
  %15 = extractvalue { ptr, i32 } %14, 0
  store ptr %15, ptr %5, align 8
  %16 = extractvalue { ptr, i32 } %14, 1
  store i32 %16, ptr %6, align 4
  call void @_ZN5boost6locale4util11locale_dataD2Ev(ptr noundef nonnull align 8 dereferenceable(129) %7) #9
  br label %17

17:                                               ; preds = %13
  %18 = load ptr, ptr %5, align 8
  %19 = load i32, ptr %6, align 4
  %20 = insertvalue { ptr, i32 } poison, ptr %18, 0
  %21 = insertvalue { ptr, i32 } %20, i32 %19, 1
  resume { ptr, i32 } %21
}

; Function Attrs: mustprogress nounwind uwtable
define linkonce_odr hidden void @_ZN5boost6locale14calendar_facetC2Em(ptr noundef nonnull align 8 dereferenceable(12) %0, i64 noundef %1) unnamed_addr #2 comdat align 2 {
  %3 = alloca ptr, align 8
  %4 = alloca i64, align 8
  store ptr %0, ptr %3, align 8, !tbaa !3
  store i64 %1, ptr %4, align 8, !tbaa !16
  %5 = load ptr, ptr %3, align 8
  %6 = load i64, ptr %4, align 8, !tbaa !16
  call void @_ZNSt6locale5facetC2Em(ptr noundef nonnull align 8 dereferenceable(12) %5, i64 noundef %6) #9
  store ptr getelementptr inbounds inrange(-16, 24) ({ [5 x ptr] }, ptr @_ZTVN5boost6locale14calendar_facetE, i32 0, i32 0, i32 2), ptr %5, align 8, !tbaa !14
  ret void
}

; Function Attrs: mustprogress uwtable
define linkonce_odr hidden void @_ZN5boost6locale8impl_icu18icu_calendar_facetC2ERKNS1_5cdataEm(ptr noundef nonnull align 8 dereferenceable(376) %0, ptr noundef nonnull align 8 dereferenceable(360) %1, i64 noundef %2) unnamed_addr #5 comdat align 2 personality ptr @__gxx_personality_v0 {
  %4 = alloca ptr, align 8
  %5 = alloca ptr, align 8
  %6 = alloca i64, align 8
  %7 = alloca ptr, align 8
  %8 = alloca i32, align 4
  store ptr %0, ptr %4, align 8, !tbaa !3
  store ptr %1, ptr %5, align 8, !tbaa !3
  store i64 %2, ptr %6, align 8, !tbaa !16
  %9 = load ptr, ptr %4, align 8
  %10 = load i64, ptr %6, align 8, !tbaa !16
  call void @_ZN5boost6locale14calendar_facetC2Em(ptr noundef nonnull align 8 dereferenceable(12) %9, i64 noundef %10)
  store ptr getelementptr inbounds inrange(-16, 24) ({ [5 x ptr] }, ptr @_ZTVN5boost6locale8impl_icu18icu_calendar_facetE, i32 0, i32 0, i32 2), ptr %9, align 8, !tbaa !14
  %11 = getelementptr inbounds nuw %"class.boost::locale::impl_icu::icu_calendar_facet", ptr %9, i32 0, i32 2
  %12 = load ptr, ptr %5, align 8, !tbaa !3
  invoke void @_ZN5boost6locale8impl_icu5cdataC2ERKS2_(ptr noundef nonnull align 8 dereferenceable(360) %11, ptr noundef nonnull align 8 dereferenceable(360) %12)
          to label %13 unwind label %14

13:                                               ; preds = %3
  ret void

14:                                               ; preds = %3
  %15 = landingpad { ptr, i32 }
          cleanup
  %16 = extractvalue { ptr, i32 } %15, 0
  store ptr %16, ptr %7, align 8
  %17 = extractvalue { ptr, i32 } %15, 1
  store i32 %17, ptr %8, align 4
  call void @_ZNSt6locale5facetD2Ev(ptr noundef nonnull align 8 dereferenceable(12) %9) #9
  br label %18

18:                                               ; preds = %14
  %19 = load ptr, ptr %7, align 8
  %20 = load i32, ptr %8, align 4
  %21 = insertvalue { ptr, i32 } poison, ptr %19, 0
  %22 = insertvalue { ptr, i32 } %21, i32 %20, 1
  resume { ptr, i32 } %22
}

; Function Attrs: mustprogress uwtable
define hidden void @_ZN5boost6locale8impl_icu15create_calendarERKSt6localeRKNS1_5cdataE(ptr dead_on_unwind noalias writable sret(%"class.std::locale") align 8 %0, ptr noundef nonnull align 8 dereferenceable(8) %1, ptr noundef nonnull align 8 dereferenceable(360) %2) #5 personality ptr @__gxx_personality_v0 {
  %4 = alloca ptr, align 8
  %5 = alloca ptr, align 8
  %6 = alloca ptr, align 8
  %7 = alloca ptr, align 8
  %8 = alloca i32, align 4
  store ptr %0, ptr %4, align 8
  store ptr %1, ptr %5, align 8, !tbaa !3
  store ptr %2, ptr %6, align 8, !tbaa !3
  %9 = load ptr, ptr %5, align 8, !tbaa !3
  %10 = call noalias noundef nonnull ptr @_Znwm(i64 noundef 376) #26
  %11 = load ptr, ptr %6, align 8, !tbaa !3
  invoke void @_ZN5boost6locale8impl_icu18icu_calendar_facetC2ERKNS1_5cdataEm(ptr noundef nonnull align 8 dereferenceable(376) %10, ptr noundef nonnull align 8 dereferenceable(360) %11, i64 noundef 0)
          to label %12 unwind label %13

12:                                               ; preds = %3
  call void @_ZNSt6localeC2IN5boost6locale8impl_icu18icu_calendar_facetEEERKS_PT_(ptr noundef nonnull align 8 dereferenceable(8) %0, ptr noundef nonnull align 8 dereferenceable(8) %9, ptr noundef %10)
  ret void

13:                                               ; preds = %3
  %14 = landingpad { ptr, i32 }
          cleanup
  %15 = extractvalue { ptr, i32 } %14, 0
  store ptr %15, ptr %7, align 8
  %16 = extractvalue { ptr, i32 } %14, 1
  store i32 %16, ptr %8, align 4
  call void @_ZdlPvm(ptr noundef %10, i64 noundef 376) #27
  br label %17

17:                                               ; preds = %13
  %18 = load ptr, ptr %7, align 8
  %19 = load i32, ptr %8, align 4
  %20 = insertvalue { ptr, i32 } poison, ptr %18, 0
  %21 = insertvalue { ptr, i32 } %20, i32 %19, 1
  resume { ptr, i32 } %21
}