; Function Attrs: mustprogress uwtable
define hidden void @_ZN5boost6locale8impl_icu15create_calendarERKSt6localeRKNS1_5cdataE(ptr dead_on_unwind noalias writable sret(%"class.std::locale") align 8 %0, ptr noundef nonnull align 8 dereferenceable(8) %1, ptr noundef nonnull align 8 dereferenceable(360) %2) local_unnamed_addr #4 personality ptr @__gxx_personality_v0 {
  %4 = tail call noalias noundef nonnull dereferenceable(376) ptr @_Znwm(i64 noundef 376) #32
  %5 = getelementptr inbounds nuw i8, ptr %4, i64 8
  store i32 0, ptr %5, align 8, !tbaa !17
  store ptr getelementptr inbounds inrange(-16, 24) (i8, ptr @_ZTVN5boost6locale8impl_icu18icu_calendar_facetE, i64 16), ptr %4, align 8, !tbaa !20
  %6 = getelementptr inbounds nuw i8, ptr %4, i64 16
  invoke void @_ZN5boost6locale4util11locale_dataC2ERKS2_(ptr noundef nonnull align 8 dereferenceable(360) %6, ptr noundef nonnull align 8 dereferenceable(360) %2)
          to label %.noexc.i unwind label %11

.noexc.i:                                         ; preds = %3
  %7 = getelementptr inbounds nuw i8, ptr %4, i64 152
  %8 = getelementptr inbounds nuw i8, ptr %2, i64 136
  invoke void @_ZN6icu_706LocaleC1ERKS0_(ptr noundef nonnull align 8 dereferenceable(217) %7, ptr noundef nonnull align 8 dereferenceable(217) %8)
          to label %_ZN5boost6locale8impl_icu18icu_calendar_facetC2ERKNS1_5cdataEm.exit unwind label %9

9:                                                ; preds = %.noexc.i
  %10 = landingpad { ptr, i32 }
          cleanup
  tail call void @_ZN5boost6locale4util11locale_dataD2Ev(ptr noundef nonnull align 8 dereferenceable(360) %6) #29
  br label %.body.i

11:                                               ; preds = %3
  %12 = landingpad { ptr, i32 }
          cleanup
  br label %.body.i

.body.i:                                          ; preds = %11, %9
  %eh.lpad-body.i = phi { ptr, i32 } [ %12, %11 ], [ %10, %9 ]
  tail call void @_ZNSt6locale5facetD2Ev(ptr noundef nonnull align 8 dereferenceable(376) %4) #29
  tail call void @_ZdlPvm(ptr noundef nonnull %4, i64 noundef 376) #33
  resume { ptr, i32 } %eh.lpad-body.i

_ZN5boost6locale8impl_icu18icu_calendar_facetC2ERKNS1_5cdataEm.exit: ; preds = %.noexc.i
  tail call void @_ZNSt6localeC2IN5boost6locale8impl_icu18icu_calendar_facetEEERKS_PT_(ptr noundef nonnull align 8 dereferenceable(8) %0, ptr noundef nonnull align 8 dereferenceable(8) %1, ptr noundef nonnull %4)
  ret void
}